; Function Attrs: null_pointer_is_valid sspstrong uwtable
define hidden void @proto_register_cql() local_unnamed_addr #0 {
  %1 = tail call i32 @proto_register_protocol(ptr noundef nonnull @.str.219, ptr noundef nonnull @.str.220, ptr noundef nonnull @.str.1)
  store i32 %1, ptr @proto_cql, align 4
  %2 = tail call ptr @register_dissector(ptr noundef nonnull @.str.1, ptr noundef nonnull @dissect_cql_tcp, i32 noundef %1)
  %3 = load i32, ptr @proto_cql, align 4
  tail call void @proto_register_field_array(i32 noundef %3, ptr noundef nonnull @proto_register_cql.hf, i32 noundef 97)
  tail call void @proto_register_subtree_array(ptr noundef nonnull @proto_register_cql.ett, i32 noundef 14)
  %4 = load i32, ptr @proto_cql, align 4
  %5 = tail call ptr @expert_register_protocol(i32 noundef %4)
  tail call void @expert_register_field_array(ptr noundef %5, ptr noundef nonnull @proto_register_cql.ei, i32 noundef 2)
  ret void
}